target datalayout = "e-m:e-p270:32:32-p271:32:32-p272:64:64-i64:64-i128:128-f80:128-n8:16:32:64-S128"
target triple = "x86_64-pc-linux-gnu"

%struct.jzfile = type { ptr, i32, i64, ptr, i64, i64, i8, i8, %struct.cencache, i32, ptr, ptr, i32, ptr, ptr, i32, ptr, i32, ptr, ptr, ptr, i32, i32, i64, i64 }
%struct.cencache = type { ptr, i64 }
%struct.jzentry = type { ptr, i64, i64, i64, i32, ptr, ptr, i64, i32, i32 }

@stderr = external global ptr, align 8
@.str.14 = private unnamed_addr constant [20 x i8] c"jzentry was invalid\00", align 1
@.str.15 = private unnamed_addr constant [8 x i8] c"%s: %s\0A\00", align 1

; Function Attrs: nounwind uwtable
define hidden void @ZIP_FreeEntry(ptr noundef %0, ptr noundef %1) #0 {
  %3 = alloca ptr, align 8
  %4 = alloca ptr, align 8
  %5 = alloca ptr, align 8
  store ptr %0, ptr %3, align 8
  store ptr %1, ptr %4, align 8
  %6 = load ptr, ptr %3, align 8
  call void @ZIP_Lock(ptr noundef %6)
  %7 = load ptr, ptr %3, align 8
  %8 = getelementptr inbounds %struct.jzfile, ptr %7, i32 0, i32 19
  %9 = load ptr, ptr %8, align 8
  store ptr %9, ptr %5, align 8
  %10 = load ptr, ptr %4, align 8
  %11 = load ptr, ptr %3, align 8
  %12 = getelementptr inbounds %struct.jzfile, ptr %11, i32 0, i32 19
  store ptr %10, ptr %12, align 8
  %13 = load ptr, ptr %3, align 8
  call void @ZIP_Unlock(ptr noundef %13)
  %14 = load ptr, ptr %5, align 8
  %15 = icmp ne ptr %14, null
  br i1 %15, label %16, label %27

16:                                               ; preds = %2
  %17 = load ptr, ptr %5, align 8
  %18 = getelementptr inbounds %struct.jzentry, ptr %17, i32 0, i32 0
  %19 = load ptr, ptr %18, align 8
  call void @free(ptr noundef %19) #11
  %20 = load ptr, ptr %5, align 8
  %21 = getelementptr inbounds %struct.jzentry, ptr %20, i32 0, i32 6
  %22 = load ptr, ptr %21, align 8
  call void @free(ptr noundef %22) #11
  %23 = load ptr, ptr %5, align 8
  %24 = getelementptr inbounds %struct.jzentry, ptr %23, i32 0, i32 5
  %25 = load ptr, ptr %24, align 8
  call void @free(ptr noundef %25) #11
  %26 = load ptr, ptr %5, align 8
  call void @free(ptr noundef %26) #11
  br label %27

27:                                               ; preds = %16, %2
  ret void
}

; Function Attrs: nounwind uwtable
define hidden void @ZIP_Unlock(ptr noundef %0) #0 {
  %2 = alloca ptr, align 8
  store ptr %0, ptr %2, align 8
  %3 = load ptr, ptr %2, align 8
  %4 = getelementptr inbounds %struct.jzfile, ptr %3, i32 0, i32 10
  %5 = load ptr, ptr %4, align 8
  call void @JVM_RawMonitorExit(ptr noundef %5)
  ret void
}

; Function Attrs: nounwind uwtable
define hidden void @ZIP_Lock(ptr noundef %0) #0 {
  %2 = alloca ptr, align 8
  store ptr %0, ptr %2, align 8
  %3 = load ptr, ptr %2, align 8
  %4 = getelementptr inbounds %struct.jzfile, ptr %3, i32 0, i32 10
  %5 = load ptr, ptr %4, align 8
  %6 = call i32 @JVM_RawMonitorEnter(ptr noundef %5)
  ret void
}

; Function Attrs: nounwind uwtable
define zeroext i8 @ZIP_ReadEntry(ptr noundef %0, ptr noundef %1, ptr noundef %2, ptr noundef %3) #0 {
  %5 = alloca i8, align 1
  %6 = alloca ptr, align 8
  %7 = alloca ptr, align 8
  %8 = alloca ptr, align 8
  %9 = alloca ptr, align 8
  %10 = alloca ptr, align 8
  %11 = alloca [1024 x i8], align 16
  %12 = alloca i64, align 8
  %13 = alloca i64, align 8
  %14 = alloca i32, align 4
  %15 = alloca i64, align 8
  %16 = alloca i32, align 4
  %17 = alloca i32, align 4
  store ptr %0, ptr %6, align 8
  store ptr %1, ptr %7, align 8
  store ptr %2, ptr %8, align 8
  store ptr %3, ptr %9, align 8
  %18 = load ptr, ptr %7, align 8
  %19 = icmp eq ptr %18, null
  br i1 %19, label %20, label %23

20:                                               ; preds = %4
  %21 = load ptr, ptr @stderr, align 8
  %22 = call i32 (ptr, ptr, ...) @jio_fprintf(ptr noundef %21, ptr noundef @.str.14)
  store i8 0, ptr %5, align 1
  br label %136

23:                                               ; preds = %4
  %24 = load ptr, ptr %9, align 8
  %25 = load ptr, ptr %7, align 8
  %26 = getelementptr inbounds %struct.jzentry, ptr %25, i32 0, i32 0
  %27 = load ptr, ptr %26, align 8
  %28 = call ptr @strcpy(ptr noundef %24, ptr noundef %27) #11
  %29 = load ptr, ptr %7, align 8
  %30 = getelementptr inbounds %struct.jzentry, ptr %29, i32 0, i32 3
  %31 = load i64, ptr %30, align 8
  %32 = icmp eq i64 %31, 0
  br i1 %32, label %33, label %96

33:                                               ; preds = %23
  store i64 0, ptr %12, align 8
  %34 = load ptr, ptr %7, align 8
  %35 = getelementptr inbounds %struct.jzentry, ptr %34, i32 0, i32 2
  %36 = load i64, ptr %35, align 8
  store i64 %36, ptr %13, align 8
  br label %37

37:                                               ; preds = %86, %33
  %38 = load i64, ptr %12, align 8
  %39 = load i64, ptr %13, align 8
  %40 = icmp slt i64 %38, %39
  br i1 %40, label %41, label %95

41:                                               ; preds = %37
  store i64 2147483647, ptr %15, align 8
  %42 = load i64, ptr %13, align 8
  %43 = load i64, ptr %12, align 8
  %44 = sub nsw i64 %42, %43
  %45 = load i64, ptr %15, align 8
  %46 = icmp slt i64 %44, %45
  br i1 %46, label %47, label %52

47:                                               ; preds = %41
  %48 = load i64, ptr %13, align 8
  %49 = load i64, ptr %12, align 8
  %50 = sub nsw i64 %48, %49
  %51 = trunc i64 %50 to i32
  br label %55

52:                                               ; preds = %41
  %53 = load i64, ptr %15, align 8
  %54 = trunc i64 %53 to i32
  br label %55

55:                                               ; preds = %52, %47
  %56 = phi i32 [ %51, %47 ], [ %54, %52 ]
  store i32 %56, ptr %16, align 4
  %57 = load ptr, ptr %6, align 8
  call void @ZIP_Lock(ptr noundef %57)
  %58 = load ptr, ptr %6, align 8
  %59 = load ptr, ptr %7, align 8
  %60 = load i64, ptr %12, align 8
  %61 = load ptr, ptr %8, align 8
  %62 = load i32, ptr %16, align 4
  %63 = call i32 @ZIP_Read(ptr noundef %58, ptr noundef %59, i64 noundef %60, ptr noundef %61, i32 noundef %62)
  store i32 %63, ptr %14, align 4
  %64 = load ptr, ptr %6, align 8
  %65 = getelementptr inbounds %struct.jzfile, ptr %64, i32 0, i32 13
  %66 = load ptr, ptr %65, align 8
  store ptr %66, ptr %10, align 8
  %67 = load ptr, ptr %6, align 8
  call void @ZIP_Unlock(ptr noundef %67)
  %68 = load i32, ptr %14, align 4
  %69 = icmp eq i32 %68, -1
  br i1 %69, label %70, label %86

70:                                               ; preds = %55
  %71 = load ptr, ptr %10, align 8
  %72 = icmp eq ptr %71, null
  br i1 %72, label %73, label %79

73:                                               ; preds = %70
  %74 = call ptr @__errno_location() #13
  %75 = load i32, ptr %74, align 4
  %76 = getelementptr inbounds [1024 x i8], ptr %11, i64 0, i64 0
  %77 = call i32 @getErrorString(i32 noundef %75, ptr noundef %76, i64 noundef 1024)
  %78 = getelementptr inbounds [1024 x i8], ptr %11, i64 0, i64 0
  store ptr %78, ptr %10, align 8
  br label %79

79:                                               ; preds = %73, %70
  %80 = load ptr, ptr @stderr, align 8
  %81 = load ptr, ptr %6, align 8
  %82 = getelementptr inbounds %struct.jzfile, ptr %81, i32 0, i32 0
  %83 = load ptr, ptr %82, align 8
  %84 = load ptr, ptr %10, align 8
  %85 = call i32 (ptr, ptr, ...) @jio_fprintf(ptr noundef %80, ptr noundef @.str.15, ptr noundef %83, ptr noundef %84)
  store i8 0, ptr %5, align 1
  br label %136

86:                                               ; preds = %55
  %87 = load i32, ptr %14, align 4
  %88 = load ptr, ptr %8, align 8
  %89 = sext i32 %87 to i64
  %90 = getelementptr inbounds i8, ptr %88, i64 %89
  store ptr %90, ptr %8, align 8
  %91 = load i32, ptr %14, align 4
  %92 = sext i32 %91 to i64
  %93 = load i64, ptr %12, align 8
  %94 = add nsw i64 %93, %92
  store i64 %94, ptr %12, align 8
  br label %37, !llvm.loop !18

95:                                               ; preds = %37
  br label %133

96:                                               ; preds = %23
  %97 = load ptr, ptr %6, align 8
  %98 = load ptr, ptr %7, align 8
  %99 = load ptr, ptr %8, align 8
  %100 = call zeroext i8 @InflateFully(ptr noundef %97, ptr noundef %98, ptr noundef %99, ptr noundef %10)
  %101 = zext i8 %100 to i32
  store i32 %101, ptr %17, align 4
  %102 = load i32, ptr %17, align 4
  %103 = icmp ne i32 %102, 0
  br i1 %103, label %132, label %104

104:                                              ; preds = %96
  %105 = load ptr, ptr %10, align 8
  %106 = icmp eq ptr %105, null
  br i1 %106, label %112, label %107

107:                                              ; preds = %104
  %108 = load ptr, ptr %10, align 8
  %109 = load i8, ptr %108, align 1
  %110 = sext i8 %109 to i32
  %111 = icmp eq i32 %110, 0
  br i1 %111, label %112, label %116

112:                                              ; preds = %107, %104
  %113 = load ptr, ptr %6, align 8
  %114 = getelementptr inbounds %struct.jzfile, ptr %113, i32 0, i32 13
  %115 = load ptr, ptr %114, align 8
  store ptr %115, ptr %10, align 8
  br label %116

116:                                              ; preds = %112, %107
  %117 = load ptr, ptr %10, align 8
  %118 = icmp eq ptr %117, null
  br i1 %118, label %119, label %125

119:                                              ; preds = %116
  %120 = call ptr @__errno_location() #13
  %121 = load i32, ptr %120, align 4
  %122 = getelementptr inbounds [1024 x i8], ptr %11, i64 0, i64 0
  %123 = call i32 @getErrorString(i32 noundef %121, ptr noundef %122, i64 noundef 1024)
  %124 = getelementptr inbounds [1024 x i8], ptr %11, i64 0, i64 0
  store ptr %124, ptr %10, align 8
  br label %125

125:                                              ; preds = %119, %116
  %126 = load ptr, ptr @stderr, align 8
  %127 = load ptr, ptr %6, align 8
  %128 = getelementptr inbounds %struct.jzfile, ptr %127, i32 0, i32 0
  %129 = load ptr, ptr %128, align 8
  %130 = load ptr, ptr %10, align 8
  %131 = call i32 (ptr, ptr, ...) @jio_fprintf(ptr noundef %126, ptr noundef @.str.15, ptr noundef %129, ptr noundef %130)
  store i8 0, ptr %5, align 1
  br label %136

132:                                              ; preds = %96
  br label %133

133:                                              ; preds = %132, %95
  %134 = load ptr, ptr %6, align 8
  %135 = load ptr, ptr %7, align 8
  call void @ZIP_FreeEntry(ptr noundef %134, ptr noundef %135)
  store i8 1, ptr %5, align 1
  br label %136

136:                                              ; preds = %133, %125, %79, %20
  %137 = load i8, ptr %5, align 1
  ret i8 %137
}