; Function Attrs: nounwind uwtable
define zeroext range(i8 0, 2) i8 @ZIP_ReadEntry(ptr noundef %0, ptr noundef %1, ptr noundef %2, ptr noundef %3) local_unnamed_addr #0 {
  %5 = alloca ptr, align 8
  %6 = alloca [1024 x i8], align 16
  %7 = icmp eq ptr %1, null
  br i1 %7, label %8, label %11

8:                                                ; preds = %4
  %9 = load ptr, ptr @stderr, align 8
  %10 = tail call i32 (ptr, ptr, ...) @jio_fprintf(ptr noundef %9, ptr noundef nonnull @.str.14) #21
  br label %ZIP_FreeEntry.exit

11:                                               ; preds = %4
  %12 = load ptr, ptr %1, align 8
  %13 = tail call ptr @strcpy(ptr noundef nonnull dereferenceable(1) %3, ptr noundef nonnull dereferenceable(1) %12) #21
  %14 = getelementptr inbounds i8, ptr %1, i64 24
  %15 = load i64, ptr %14, align 8
  %16 = icmp eq i64 %15, 0
  br i1 %16, label %17, label %49

17:                                               ; preds = %11
  %18 = getelementptr inbounds i8, ptr %1, i64 16
  %19 = load i64, ptr %18, align 8
  %20 = icmp sgt i64 %19, 0
  br i1 %20, label %.lr.ph, label %.loopexit

.lr.ph:                                           ; preds = %17
  %21 = getelementptr inbounds i8, ptr %0, i64 80
  %22 = getelementptr inbounds i8, ptr %0, i64 104
  br label %23

23:                                               ; preds = %.lr.ph, %44
  %.03544 = phi ptr [ %2, %.lr.ph ], [ %46, %44 ]
  %.03643 = phi i64 [ 0, %.lr.ph ], [ %47, %44 ]
  %24 = sub nsw i64 %19, %.03643
  %25 = tail call i64 @llvm.smin.i64(i64 %24, i64 2147483647)
  %26 = trunc i64 %25 to i32
  %27 = load ptr, ptr %21, align 8
  %28 = tail call i32 @JVM_RawMonitorEnter(ptr noundef %27) #21
  %29 = tail call i32 @ZIP_Read(ptr noundef %0, ptr noundef nonnull %1, i64 noundef %.03643, ptr noundef %.03544, i32 noundef %26)
  %30 = load ptr, ptr %22, align 8
  %31 = load ptr, ptr %21, align 8
  tail call void @JVM_RawMonitorExit(ptr noundef %31) #21
  %32 = icmp eq i32 %29, -1
  br i1 %32, label %33, label %44

33:                                               ; preds = %23
  %34 = icmp eq ptr %30, null
  br i1 %34, label %35, label %39

35:                                               ; preds = %33
  %36 = tail call ptr @__errno_location() #22
  %37 = load i32, ptr %36, align 4
  %38 = call i32 @getErrorString(i32 noundef %37, ptr noundef nonnull %6, i64 noundef 1024) #21
  br label %39

39:                                               ; preds = %35, %33
  %40 = phi ptr [ %6, %35 ], [ %30, %33 ]
  %41 = load ptr, ptr @stderr, align 8
  %42 = load ptr, ptr %0, align 8
  %43 = call i32 (ptr, ptr, ...) @jio_fprintf(ptr noundef %41, ptr noundef nonnull @.str.15, ptr noundef %42, ptr noundef nonnull %40) #21
  br label %ZIP_FreeEntry.exit

44:                                               ; preds = %23
  %45 = sext i32 %29 to i64
  %46 = getelementptr inbounds i8, ptr %.03544, i64 %45
  %47 = add nsw i64 %.03643, %45
  %48 = icmp slt i64 %47, %19
  br i1 %48, label %23, label %.loopexit, !llvm.loop !23

49:                                               ; preds = %11
  %50 = call zeroext i8 @InflateFully(ptr noundef %0, ptr noundef nonnull %1, ptr noundef %2, ptr noundef nonnull %5)
  %.not = icmp eq i8 %50, 0
  br i1 %.not, label %51, label %.loopexit

51:                                               ; preds = %49
  %52 = load ptr, ptr %5, align 8
  %53 = icmp eq ptr %52, null
  br i1 %53, label %57, label %54

54:                                               ; preds = %51
  %55 = load i8, ptr %52, align 1
  %56 = icmp eq i8 %55, 0
  br i1 %56, label %57, label %.thread

57:                                               ; preds = %51, %54
  %58 = getelementptr inbounds i8, ptr %0, i64 104
  %59 = load ptr, ptr %58, align 8
  %60 = icmp eq ptr %59, null
  br i1 %60, label %61, label %.thread

61:                                               ; preds = %57
  %62 = tail call ptr @__errno_location() #22
  %63 = load i32, ptr %62, align 4
  %64 = call i32 @getErrorString(i32 noundef %63, ptr noundef nonnull %6, i64 noundef 1024) #21
  br label %.thread

.thread:                                          ; preds = %54, %61, %57
  %65 = phi ptr [ %52, %54 ], [ %6, %61 ], [ %59, %57 ]
  %66 = load ptr, ptr @stderr, align 8
  %67 = load ptr, ptr %0, align 8
  %68 = call i32 (ptr, ptr, ...) @jio_fprintf(ptr noundef %66, ptr noundef nonnull @.str.15, ptr noundef %67, ptr noundef nonnull %65) #21
  br label %ZIP_FreeEntry.exit

.loopexit:                                        ; preds = %44, %17, %49
  %69 = getelementptr inbounds i8, ptr %0, i64 80
  %70 = load ptr, ptr %69, align 8
  %71 = tail call i32 @JVM_RawMonitorEnter(ptr noundef %70) #21
  %72 = getelementptr inbounds i8, ptr %0, i64 152
  %73 = load ptr, ptr %72, align 8
  store ptr %1, ptr %72, align 8
  %74 = load ptr, ptr %69, align 8
  tail call void @JVM_RawMonitorExit(ptr noundef %74) #21
  %.not.i = icmp eq ptr %73, null
  br i1 %.not.i, label %ZIP_FreeEntry.exit, label %75

75:                                               ; preds = %.loopexit
  %76 = load ptr, ptr %73, align 8
  tail call void @free(ptr noundef %76) #21
  %77 = getelementptr inbounds i8, ptr %73, i64 48
  %78 = load ptr, ptr %77, align 8
  tail call void @free(ptr noundef %78) #21
  %79 = getelementptr inbounds i8, ptr %73, i64 40
  %80 = load ptr, ptr %79, align 8
  tail call void @free(ptr noundef %80) #21
  tail call void @free(ptr noundef nonnull %73) #21
  br label %ZIP_FreeEntry.exit

ZIP_FreeEntry.exit:                               ; preds = %75, %.loopexit, %.thread, %39, %8
  %.0 = phi i8 [ 0, %8 ], [ 0, %39 ], [ 0, %.thread ], [ 1, %.loopexit ], [ 1, %75 ]
  ret i8 %.0
}